target datalayout = "e-m:e-p270:32:32-p271:32:32-p272:64:64-i64:64-i128:128-f80:128-n8:16:32:64-S128"
target triple = "x86_64-unknown-linux-gnu"

%"class.v8::IndirectHandleBase" = type { ptr }
%"class.node::MemoryRetainer" = type { ptr }
%"struct.node::crypto::CSPRNGResult" = type { i8 }
%"class.node::crypto::SecureContext" = type { %"class.node::BaseObject", %"class.std::unique_ptr.298", %"class.std::unique_ptr.306", %"class.std::unique_ptr.306", i8, [7 x i8], %"struct.node::crypto::EnginePointer", [16 x i8], [16 x i8], [16 x i8] }
%"class.node::BaseObject" = type { %"class.node::MemoryRetainer", %"class.v8::Global.296", ptr, ptr }
%"class.v8::Global.296" = type { %"class.v8::PersistentBase.297" }
%"class.v8::PersistentBase.297" = type { %"class.v8::IndirectHandleBase" }
%"class.std::unique_ptr.298" = type { %"struct.std::__uniq_ptr_data.299" }
%"struct.std::__uniq_ptr_data.299" = type { %"class.std::__uniq_ptr_impl.300" }
%"class.std::__uniq_ptr_impl.300" = type { %"class.std::tuple.301" }
%"class.std::tuple.301" = type { %"struct.std::_Tuple_impl.302" }
%"struct.std::_Tuple_impl.302" = type { %"struct.std::_Head_base.305" }
%"struct.std::_Head_base.305" = type { ptr }
%"class.std::unique_ptr.306" = type { %"struct.std::__uniq_ptr_data.307" }
%"struct.std::__uniq_ptr_data.307" = type { %"class.std::__uniq_ptr_impl.308" }
%"class.std::__uniq_ptr_impl.308" = type { %"class.std::tuple.309" }
%"class.std::tuple.309" = type { %"struct.std::_Tuple_impl.310" }
%"struct.std::_Tuple_impl.310" = type { %"struct.std::_Head_base.313" }
%"struct.std::_Head_base.313" = type { ptr }
%"struct.node::crypto::EnginePointer" = type <{ ptr, i8, [7 x i8] }>

; Function Attrs: mustprogress nounwind uwtable
define linkonce_odr dso_local noundef zeroext i1 @_ZNK4node6crypto12CSPRNGResult6is_errEv(ptr noundef nonnull align 1 dereferenceable(1) %this) #4 comdat align 2 {
entry:
  %this.addr = alloca ptr, align 8
  store ptr %this, ptr %this.addr, align 8
  %this1 = load ptr, ptr %this.addr, align 8
  %ok = getelementptr inbounds %"struct.node::crypto::CSPRNGResult", ptr %this1, i32 0, i32 0
  %0 = load i8, ptr %ok, align 1
  %tobool = trunc i8 %0 to i1
  %lnot = xor i1 %tobool, true
  ret i1 %lnot
}

; Function Attrs: mustprogress nounwind uwtable
define dso_local noundef i32 @_ZN4node6crypto13SecureContext27TicketCompatibilityCallbackEP6ssl_stPhS4_P17evp_cipher_ctx_stP11hmac_ctx_sti(ptr noundef %ssl, ptr noundef %name, ptr noundef %iv, ptr noundef %ectx, ptr noundef %hctx, i32 noundef %enc) #4 align 2 {
entry:
  %retval = alloca i32, align 4
  %ssl.addr = alloca ptr, align 8
  %name.addr = alloca ptr, align 8
  %iv.addr = alloca ptr, align 8
  %ectx.addr = alloca ptr, align 8
  %hctx.addr = alloca ptr, align 8
  %enc.addr = alloca i32, align 4
  %sc = alloca ptr, align 8
  %ref.tmp = alloca %"struct.node::crypto::CSPRNGResult", align 1
  store ptr %ssl, ptr %ssl.addr, align 8
  store ptr %name, ptr %name.addr, align 8
  store ptr %iv, ptr %iv.addr, align 8
  store ptr %ectx, ptr %ectx.addr, align 8
  store ptr %hctx, ptr %hctx.addr, align 8
  store i32 %enc, ptr %enc.addr, align 4
  %0 = load ptr, ptr %ssl.addr, align 8
  %call = call ptr @SSL_get_SSL_CTX(ptr noundef %0)
  %call1 = call ptr @SSL_CTX_get_ex_data(ptr noundef %call, i32 noundef 0)
  store ptr %call1, ptr %sc, align 8
  %1 = load i32, ptr %enc.addr, align 4
  %tobool = icmp ne i32 %1, 0
  br i1 %tobool, label %if.then, label %if.end12

if.then:                                          ; preds = %entry
  %2 = load ptr, ptr %name.addr, align 8
  %3 = load ptr, ptr %sc, align 8
  %ticket_key_name_ = getelementptr inbounds %"class.node::crypto::SecureContext", ptr %3, i32 0, i32 7
  %arraydecay = getelementptr inbounds [16 x i8], ptr %ticket_key_name_, i64 0, i64 0
  call void @llvm.memcpy.p0.p0.i64(ptr align 1 %2, ptr align 8 %arraydecay, i64 16, i1 false)
  %4 = load ptr, ptr %iv.addr, align 8
  %call2 = call i8 @_ZN4node6crypto6CSPRNGEPvm(ptr noundef %4, i64 noundef 16)
  %coerce.dive = getelementptr inbounds %"struct.node::crypto::CSPRNGResult", ptr %ref.tmp, i32 0, i32 0
  store i8 %call2, ptr %coerce.dive, align 1
  %call3 = call noundef zeroext i1 @_ZNK4node6crypto12CSPRNGResult6is_errEv(ptr noundef nonnull align 1 dereferenceable(1) %ref.tmp)
  br i1 %call3, label %lor.end, label %lor.lhs.false

lor.lhs.false:                                    ; preds = %if.then
  %5 = load ptr, ptr %ectx.addr, align 8
  %call4 = call ptr @EVP_aes_128_cbc()
  %6 = load ptr, ptr %sc, align 8
  %ticket_key_aes_ = getelementptr inbounds %"class.node::crypto::SecureContext", ptr %6, i32 0, i32 8
  %arraydecay5 = getelementptr inbounds [16 x i8], ptr %ticket_key_aes_, i64 0, i64 0
  %7 = load ptr, ptr %iv.addr, align 8
  %call6 = call i32 @EVP_EncryptInit_ex(ptr noundef %5, ptr noundef %call4, ptr noundef null, ptr noundef %arraydecay5, ptr noundef %7)
  %cmp = icmp sle i32 %call6, 0
  br i1 %cmp, label %lor.end, label %lor.rhs

lor.rhs:                                          ; preds = %lor.lhs.false
  %8 = load ptr, ptr %hctx.addr, align 8
  %9 = load ptr, ptr %sc, align 8
  %ticket_key_hmac_ = getelementptr inbounds %"class.node::crypto::SecureContext", ptr %9, i32 0, i32 9
  %arraydecay7 = getelementptr inbounds [16 x i8], ptr %ticket_key_hmac_, i64 0, i64 0
  %call8 = call ptr @EVP_sha256()
  %call9 = call i32 @HMAC_Init_ex(ptr noundef %8, ptr noundef %arraydecay7, i32 noundef 16, ptr noundef %call8, ptr noundef null)
  %cmp10 = icmp sle i32 %call9, 0
  br label %lor.end

lor.end:                                          ; preds = %lor.rhs, %lor.lhs.false, %if.then
  %10 = phi i1 [ true, %lor.lhs.false ], [ true, %if.then ], [ %cmp10, %lor.rhs ]
  br i1 %10, label %if.then11, label %if.end

if.then11:                                        ; preds = %lor.end
  store i32 -1, ptr %retval, align 4
  br label %return

if.end:                                           ; preds = %lor.end
  store i32 1, ptr %retval, align 4
  br label %return

if.end12:                                         ; preds = %entry
  %11 = load ptr, ptr %name.addr, align 8
  %12 = load ptr, ptr %sc, align 8
  %ticket_key_name_13 = getelementptr inbounds %"class.node::crypto::SecureContext", ptr %12, i32 0, i32 7
  %arraydecay14 = getelementptr inbounds [16 x i8], ptr %ticket_key_name_13, i64 0, i64 0
  %call15 = call i32 @memcmp(ptr noundef %11, ptr noundef %arraydecay14, i64 noundef 16) #14
  %cmp16 = icmp ne i32 %call15, 0
  br i1 %cmp16, label %if.then17, label %if.end18

if.then17:                                        ; preds = %if.end12
  store i32 0, ptr %retval, align 4
  br label %return

if.end18:                                         ; preds = %if.end12
  %13 = load ptr, ptr %ectx.addr, align 8
  %call19 = call ptr @EVP_aes_128_cbc()
  %14 = load ptr, ptr %sc, align 8
  %ticket_key_aes_20 = getelementptr inbounds %"class.node::crypto::SecureContext", ptr %14, i32 0, i32 8
  %arraydecay21 = getelementptr inbounds [16 x i8], ptr %ticket_key_aes_20, i64 0, i64 0
  %15 = load ptr, ptr %iv.addr, align 8
  %call22 = call i32 @EVP_DecryptInit_ex(ptr noundef %13, ptr noundef %call19, ptr noundef null, ptr noundef %arraydecay21, ptr noundef %15)
  %cmp23 = icmp sle i32 %call22, 0
  br i1 %cmp23, label %if.then30, label %lor.lhs.false24

lor.lhs.false24:                                  ; preds = %if.end18
  %16 = load ptr, ptr %hctx.addr, align 8
  %17 = load ptr, ptr %sc, align 8
  %ticket_key_hmac_25 = getelementptr inbounds %"class.node::crypto::SecureContext", ptr %17, i32 0, i32 9
  %arraydecay26 = getelementptr inbounds [16 x i8], ptr %ticket_key_hmac_25, i64 0, i64 0
  %call27 = call ptr @EVP_sha256()
  %call28 = call i32 @HMAC_Init_ex(ptr noundef %16, ptr noundef %arraydecay26, i32 noundef 16, ptr noundef %call27, ptr noundef null)
  %cmp29 = icmp sle i32 %call28, 0
  br i1 %cmp29, label %if.then30, label %if.end31

if.then30:                                        ; preds = %lor.lhs.false24, %if.end18
  store i32 -1, ptr %retval, align 4
  br label %return

if.end31:                                         ; preds = %lor.lhs.false24
  store i32 1, ptr %retval, align 4
  br label %return

return:                                           ; preds = %if.end31, %if.then30, %if.then17, %if.end, %if.then11
  %18 = load i32, ptr %retval, align 4
  ret i32 %18
}