; Function Attrs: mustprogress nounwind uwtable
define dso_local noundef i32 @_ZN4node6crypto13SecureContext27TicketCompatibilityCallbackEP6ssl_stPhS4_P17evp_cipher_ctx_stP11hmac_ctx_sti(ptr noundef %ssl, ptr nocapture noundef %name, ptr noundef %iv, ptr noundef %ectx, ptr noundef %hctx, i32 noundef %enc) #3 align 2 {
entry:
  %call = tail call ptr @SSL_get_SSL_CTX(ptr noundef %ssl) #20
  %call1 = tail call ptr @SSL_CTX_get_ex_data(ptr noundef %call, i32 noundef 0) #20
  %tobool.not = icmp eq i32 %enc, 0
  %ticket_key_name_13 = getelementptr inbounds i8, ptr %call1, i64 80
  br i1 %tobool.not, label %if.end12, label %if.then

if.then:                                          ; preds = %entry
  tail call void @llvm.memcpy.p0.p0.i64(ptr noundef nonnull align 1 dereferenceable(16) %name, ptr noundef nonnull align 8 dereferenceable(16) %ticket_key_name_13, i64 16, i1 false)
  %call2 = tail call i8 @_ZN4node6crypto6CSPRNGEPvm(ptr noundef %iv, i64 noundef 16) #20
  %0 = and i8 %call2, 1
  %tobool.not.i = icmp eq i8 %0, 0
  br i1 %tobool.not.i, label %return, label %lor.lhs.false

lor.lhs.false:                                    ; preds = %if.then
  %call4 = tail call ptr @EVP_aes_128_cbc() #20
  %ticket_key_aes_ = getelementptr inbounds i8, ptr %call1, i64 96
  %call6 = tail call i32 @EVP_EncryptInit_ex(ptr noundef %ectx, ptr noundef %call4, ptr noundef null, ptr noundef nonnull %ticket_key_aes_, ptr noundef %iv) #20
  %cmp = icmp slt i32 %call6, 1
  br i1 %cmp, label %return, label %return.sink.split

if.end12:                                         ; preds = %entry
  %bcmp = tail call i32 @bcmp(ptr noundef nonnull dereferenceable(16) %name, ptr noundef nonnull dereferenceable(16) %ticket_key_name_13, i64 16)
  %cmp16.not = icmp eq i32 %bcmp, 0
  br i1 %cmp16.not, label %if.end18, label %return

if.end18:                                         ; preds = %if.end12
  %call19 = tail call ptr @EVP_aes_128_cbc() #20
  %ticket_key_aes_20 = getelementptr inbounds i8, ptr %call1, i64 96
  %call22 = tail call i32 @EVP_DecryptInit_ex(ptr noundef %ectx, ptr noundef %call19, ptr noundef null, ptr noundef nonnull %ticket_key_aes_20, ptr noundef %iv) #20
  %cmp23 = icmp slt i32 %call22, 1
  br i1 %cmp23, label %return, label %return.sink.split

return.sink.split:                                ; preds = %if.end18, %lor.lhs.false
  %ticket_key_hmac_25 = getelementptr inbounds i8, ptr %call1, i64 112
  %call27 = tail call ptr @EVP_sha256() #20
  %call28 = tail call i32 @HMAC_Init_ex(ptr noundef %hctx, ptr noundef nonnull %ticket_key_hmac_25, i32 noundef 16, ptr noundef %call27, ptr noundef null) #20
  %cmp29 = icmp slt i32 %call28, 1
  %spec.select11 = select i1 %cmp29, i32 -1, i32 1
  br label %return

return:                                           ; preds = %return.sink.split, %if.end18, %if.end12, %if.then, %lor.lhs.false
  %retval.0 = phi i32 [ -1, %lor.lhs.false ], [ -1, %if.then ], [ 0, %if.end12 ], [ -1, %if.end18 ], [ %spec.select11, %return.sink.split ]
  ret i32 %retval.0
}